target datalayout = "e-m:e-p270:32:32-p271:32:32-p272:64:64-i64:64-i128:128-f80:128-n8:16:32:64-S128"
target triple = "x86_64-unknown-linux-gnu"

%struct.QEnumLookup = type { ptr, ptr, i32 }
%struct.TpmTypeList = type { ptr, i32 }

@TpmType_lookup = external constant %struct.QEnumLookup, align 8
@.str.12 = private unnamed_addr constant [7 x i8] c"tpm-%s\00", align 1
@.str.13 = private unnamed_addr constant [12 x i8] c"tpm-backend\00", align 1
@.str.14 = private unnamed_addr constant [107 x i8] c"/home/dtcxzyw/WorkSpace/Projects/compilers/llvm-opt-benchmark/bench/qemu/qemu/include/sysemu/tpm_backend.h\00", align 1
@__func__.TPM_BACKEND_CLASS = private unnamed_addr constant [18 x i8] c"TPM_BACKEND_CLASS\00", align 1

; Function Attrs: nounwind sspstrong uwtable
define internal ptr @TPM_BACKEND_CLASS(ptr noundef %klass) #0 {
entry:
  %klass.addr = alloca ptr, align 8
  store ptr %klass, ptr %klass.addr, align 8
  %0 = load ptr, ptr %klass.addr, align 8
  %call = call ptr @object_class_dynamic_cast_assert(ptr noundef %0, ptr noundef @.str.13, ptr noundef @.str.14, i32 noundef 25, ptr noundef @__func__.TPM_BACKEND_CLASS)
  ret ptr %call
}

; Function Attrs: nounwind sspstrong uwtable
define internal ptr @tpm_be_find_by_type(i32 noundef %type) #0 {
entry:
  %retval = alloca ptr, align 8
  %type.addr = alloca i32, align 4
  %oc = alloca ptr, align 8
  %typename = alloca ptr, align 8
  store i32 %type, ptr %type.addr, align 4
  %0 = load i32, ptr %type.addr, align 4
  %call = call ptr @qapi_enum_lookup(ptr noundef @TpmType_lookup, i32 noundef %0)
  %call1 = call noalias ptr (ptr, ...) @g_strdup_printf(ptr noundef @.str.12, ptr noundef %call)
  store ptr %call1, ptr %typename, align 8
  %1 = load ptr, ptr %typename, align 8
  %call2 = call ptr @object_class_by_name(ptr noundef %1)
  store ptr %call2, ptr %oc, align 8
  %2 = load ptr, ptr %typename, align 8
  call void @g_free(ptr noundef %2)
  %3 = load ptr, ptr %oc, align 8
  %call3 = call ptr @object_class_dynamic_cast(ptr noundef %3, ptr noundef @.str.13)
  %tobool = icmp ne ptr %call3, null
  br i1 %tobool, label %if.end, label %if.then

if.then:                                          ; preds = %entry
  store ptr null, ptr %retval, align 8
  br label %return

if.end:                                           ; preds = %entry
  %4 = load ptr, ptr %oc, align 8
  %call4 = call ptr @TPM_BACKEND_CLASS(ptr noundef %4)
  store ptr %call4, ptr %retval, align 8
  br label %return

return:                                           ; preds = %if.end, %if.then
  %5 = load ptr, ptr %retval, align 8
  ret ptr %5
}

; Function Attrs: nounwind sspstrong uwtable
define dso_local ptr @qmp_query_tpm_types(ptr noundef %errp) #0 {
entry:
  %errp.addr = alloca ptr, align 8
  %i = alloca i32, align 4
  %head = alloca ptr, align 8
  %tail = alloca ptr, align 8
  store ptr %errp, ptr %errp.addr, align 8
  store i32 0, ptr %i, align 4
  store ptr null, ptr %head, align 8
  store ptr %head, ptr %tail, align 8
  store i32 0, ptr %i, align 4
  br label %for.cond

for.cond:                                         ; preds = %for.inc, %entry
  %0 = load i32, ptr %i, align 4
  %cmp = icmp ult i32 %0, 2
  br i1 %cmp, label %for.body, label %for.end

for.body:                                         ; preds = %for.cond
  %1 = load i32, ptr %i, align 4
  %call = call ptr @tpm_be_find_by_type(i32 noundef %1)
  %tobool = icmp ne ptr %call, null
  br i1 %tobool, label %if.end, label %if.then

if.then:                                          ; preds = %for.body
  br label %for.inc

if.end:                                           ; preds = %for.body
  br label %do.body

do.body:                                          ; preds = %if.end
  %call1 = call noalias ptr @g_malloc0(i64 noundef 16) #5
  %2 = load ptr, ptr %tail, align 8
  store ptr %call1, ptr %2, align 8
  %3 = load i32, ptr %i, align 4
  %4 = load ptr, ptr %tail, align 8
  %5 = load ptr, ptr %4, align 8
  %value = getelementptr inbounds %struct.TpmTypeList, ptr %5, i32 0, i32 1
  store i32 %3, ptr %value, align 8
  %6 = load ptr, ptr %tail, align 8
  %7 = load ptr, ptr %6, align 8
  %next = getelementptr inbounds %struct.TpmTypeList, ptr %7, i32 0, i32 0
  store ptr %next, ptr %tail, align 8
  br label %do.end

do.end:                                           ; preds = %do.body
  br label %for.inc

for.inc:                                          ; preds = %do.end, %if.then
  %8 = load i32, ptr %i, align 4
  %inc = add i32 %8, 1
  store i32 %inc, ptr %i, align 4
  br label %for.cond, !llvm.loop !10

for.end:                                          ; preds = %for.cond
  %9 = load ptr, ptr %head, align 8
  ret ptr %9
}