; Function Attrs: nounwind sspstrong uwtable
define dso_local ptr @qmp_query_tpm_types(ptr noundef readnone captures(none) %errp) local_unnamed_addr #2 {
entry:
  %head = alloca ptr, align 8
  store ptr null, ptr %head, align 8
  br label %for.body

for.body:                                         ; preds = %entry, %for.inc
  %tail.09 = phi ptr [ %head, %entry ], [ %tail.1, %for.inc ]
  %cmp = phi i1 [ true, %entry ], [ false, %for.inc ]
  %i.08 = phi i32 [ 0, %entry ], [ 1, %for.inc ]
  %call.i = tail call ptr @qapi_enum_lookup(ptr noundef nonnull @TpmType_lookup, i32 noundef range(i32 0, -2147483648) %i.08) #7
  %call1.i = tail call noalias ptr (ptr, ...) @g_strdup_printf(ptr noundef nonnull @.str.12, ptr noundef %call.i) #7
  %call2.i = tail call ptr @object_class_by_name(ptr noundef %call1.i) #7
  tail call void @g_free(ptr noundef %call1.i) #7
  %call3.i = tail call ptr @object_class_dynamic_cast(ptr noundef %call2.i, ptr noundef nonnull @.str.13) #7
  %tobool.not.i = icmp eq ptr %call3.i, null
  br i1 %tobool.not.i, label %for.inc, label %tpm_be_find_by_type.exit

tpm_be_find_by_type.exit:                         ; preds = %for.body
  %call.i.i = tail call ptr @object_class_dynamic_cast_assert(ptr noundef %call2.i, ptr noundef nonnull @.str.13, ptr noundef nonnull @.str.14, i32 noundef 25, ptr noundef nonnull @__func__.TPM_BACKEND_CLASS) #7
  %tobool.not = icmp eq ptr %call.i.i, null
  br i1 %tobool.not, label %for.inc, label %do.body

do.body:                                          ; preds = %tpm_be_find_by_type.exit
  %call1 = tail call noalias dereferenceable_or_null(16) ptr @g_malloc0(i64 noundef 16) #8
  store ptr %call1, ptr %tail.09, align 8
  %value = getelementptr inbounds nuw i8, ptr %call1, i64 8
  store i32 %i.08, ptr %value, align 8
  %0 = load ptr, ptr %tail.09, align 8
  br label %for.inc

for.inc:                                          ; preds = %for.body, %tpm_be_find_by_type.exit, %do.body
  %tail.1 = phi ptr [ %0, %do.body ], [ %tail.09, %tpm_be_find_by_type.exit ], [ %tail.09, %for.body ]
  br i1 %cmp, label %for.body, label %for.end, !llvm.loop !10

for.end:                                          ; preds = %for.inc
  %head.0.head.0.head.0.head.0. = load ptr, ptr %head, align 8
  ret ptr %head.0.head.0.head.0.head.0.
}